; Function Attrs: nounwind uwtable
define noalias noundef ptr @Bac_PtrTransformBoxes(ptr noundef readonly captures(none) %0, ptr noundef %1) local_unnamed_addr #0 {
  %3 = getelementptr i8, ptr %0, i64 4
  %.val10 = load i32, ptr %3, align 4
  %4 = tail call noalias dereferenceable_or_null(16) ptr @malloc(i64 noundef 16) #15
  %5 = getelementptr inbounds nuw i8, ptr %4, i64 4
  store i32 0, ptr %5, align 4
  store i32 %.val10, ptr %4, align 8
  %.not.i = icmp eq i32 %.val10, 0
  br i1 %.not.i, label %Vec_PtrAllocExact.exit.thread, label %Vec_PtrAllocExact.exit

Vec_PtrAllocExact.exit.thread:                    ; preds = %2
  %6 = getelementptr inbounds nuw i8, ptr %4, i64 8
  store ptr null, ptr %6, align 8
  br label %.critedge

Vec_PtrAllocExact.exit:                           ; preds = %2
  %7 = sext i32 %.val10 to i64
  %8 = shl nsw i64 %7, 3
  %9 = tail call noalias ptr @malloc(i64 noundef %8) #15
  %10 = getelementptr inbounds nuw i8, ptr %4, i64 8
  store ptr %9, ptr %10, align 8
  %11 = icmp sgt i32 %.val10, 0
  br i1 %11, label %.lr.ph, label %.critedge

.lr.ph:                                           ; preds = %Vec_PtrAllocExact.exit
  %12 = getelementptr i8, ptr %0, i64 8
  br label %13

13:                                               ; preds = %.lr.ph, %Vec_PtrPush.exit
  %indvars.iv = phi i64 [ 0, %.lr.ph ], [ %indvars.iv.next, %Vec_PtrPush.exit ]
  %.val = load ptr, ptr %12, align 8
  %14 = getelementptr inbounds nuw ptr, ptr %.val, i64 %indvars.iv
  %15 = load ptr, ptr %14, align 8
  %16 = tail call ptr @Bac_PtrTransformBox(ptr noundef %15, ptr noundef %1)
  %17 = load i32, ptr %5, align 4
  %18 = load i32, ptr %4, align 8
  %19 = icmp eq i32 %17, %18
  br i1 %19, label %20, label %.Vec_PtrGrow.exit11_crit_edge.i

.Vec_PtrGrow.exit11_crit_edge.i:                  ; preds = %13
  %.pre.i = load ptr, ptr %10, align 8
  br label %Vec_PtrPush.exit

20:                                               ; preds = %13
  %21 = icmp slt i32 %17, 16
  br i1 %21, label %22, label %29

22:                                               ; preds = %20
  %23 = load ptr, ptr %10, align 8
  %.not9.i.i = icmp eq ptr %23, null
  br i1 %.not9.i.i, label %26, label %24

24:                                               ; preds = %22
  %25 = tail call dereferenceable_or_null(128) ptr @realloc(ptr noundef nonnull %23, i64 noundef 128) #17
  br label %Vec_PtrGrow.exit.i

26:                                               ; preds = %22
  %27 = tail call noalias dereferenceable_or_null(128) ptr @malloc(i64 noundef 128) #15
  br label %Vec_PtrGrow.exit.i

Vec_PtrGrow.exit.i:                               ; preds = %26, %24
  %28 = phi ptr [ %25, %24 ], [ %27, %26 ]
  store ptr %28, ptr %10, align 8
  store i32 16, ptr %4, align 8
  br label %Vec_PtrPush.exit

29:                                               ; preds = %20
  %30 = shl nuw nsw i32 %17, 1
  %31 = load ptr, ptr %10, align 8
  %.not9.i10.i = icmp eq ptr %31, null
  %32 = zext nneg i32 %30 to i64
  %33 = shl nuw nsw i64 %32, 3
  br i1 %.not9.i10.i, label %36, label %34

34:                                               ; preds = %29
  %35 = tail call ptr @realloc(ptr noundef nonnull %31, i64 noundef %33) #17
  br label %38

36:                                               ; preds = %29
  %37 = tail call noalias ptr @malloc(i64 noundef %33) #15
  br label %38

38:                                               ; preds = %36, %34
  %39 = phi ptr [ %35, %34 ], [ %37, %36 ]
  store ptr %39, ptr %10, align 8
  store i32 %30, ptr %4, align 8
  br label %Vec_PtrPush.exit

Vec_PtrPush.exit:                                 ; preds = %.Vec_PtrGrow.exit11_crit_edge.i, %Vec_PtrGrow.exit.i, %38
  %40 = phi ptr [ %.pre.i, %.Vec_PtrGrow.exit11_crit_edge.i ], [ %39, %38 ], [ %28, %Vec_PtrGrow.exit.i ]
  %41 = add nsw i32 %17, 1
  store i32 %41, ptr %5, align 4
  %42 = sext i32 %17 to i64
  %43 = getelementptr inbounds ptr, ptr %40, i64 %42
  store ptr %16, ptr %43, align 8
  %indvars.iv.next = add nuw nsw i64 %indvars.iv, 1
  %.val9 = load i32, ptr %3, align 4
  %44 = sext i32 %.val9 to i64
  %45 = icmp slt i64 %indvars.iv.next, %44
  br i1 %45, label %13, label %.critedge, !llvm.loop !20

.critedge:                                        ; preds = %Vec_PtrPush.exit, %Vec_PtrAllocExact.exit.thread, %Vec_PtrAllocExact.exit
  ret ptr %4
}